target datalayout = "e-m:e-p270:32:32-p271:32:32-p272:64:64-i64:64-i128:128-f80:128-n8:16:32:64-S128"
target triple = "x86_64-pc-linux-gnu"

%struct.sp_int = type { i16, i16, [129 x i64] }

; Function Attrs: nounwind uwtable
define i32 @sp_leading_bit(ptr noundef %0) #0 {
  %2 = alloca ptr, align 8
  %3 = alloca i32, align 4
  %4 = alloca i64, align 8
  store ptr %0, ptr %2, align 8, !tbaa !3
  call void @llvm.lifetime.start.p0(i64 4, ptr %3) #8
  store i32 0, ptr %3, align 4, !tbaa !8
  %5 = load ptr, ptr %2, align 8, !tbaa !3
  %6 = icmp ne ptr %5, null
  br i1 %6, label %7, label %34

7:                                                ; preds = %1
  %8 = load ptr, ptr %2, align 8, !tbaa !3
  %9 = getelementptr inbounds nuw %struct.sp_int, ptr %8, i32 0, i32 0
  %10 = load i16, ptr %9, align 8, !tbaa !15
  %11 = zext i16 %10 to i32
  %12 = icmp sgt i32 %11, 0
  br i1 %12, label %13, label %34

13:                                               ; preds = %7
  call void @llvm.lifetime.start.p0(i64 8, ptr %4) #8
  %14 = load ptr, ptr %2, align 8, !tbaa !3
  %15 = getelementptr inbounds nuw %struct.sp_int, ptr %14, i32 0, i32 2
  %16 = load ptr, ptr %2, align 8, !tbaa !3
  %17 = getelementptr inbounds nuw %struct.sp_int, ptr %16, i32 0, i32 0
  %18 = load i16, ptr %17, align 8, !tbaa !15
  %19 = zext i16 %18 to i32
  %20 = sub nsw i32 %19, 1
  %21 = sext i32 %20 to i64
  %22 = getelementptr inbounds [129 x i64], ptr %15, i64 0, i64 %21
  %23 = load i64, ptr %22, align 8, !tbaa !16
  store i64 %23, ptr %4, align 8, !tbaa !16
  br label %24

24:                                               ; preds = %27, %13
  %25 = load i64, ptr %4, align 8, !tbaa !16
  %26 = icmp ugt i64 %25, 255
  br i1 %26, label %27, label %30

27:                                               ; preds = %24
  %28 = load i64, ptr %4, align 8, !tbaa !16
  %29 = lshr i64 %28, 8
  store i64 %29, ptr %4, align 8, !tbaa !16
  br label %24, !llvm.loop !40

30:                                               ; preds = %24
  %31 = load i64, ptr %4, align 8, !tbaa !16
  %32 = lshr i64 %31, 7
  %33 = trunc i64 %32 to i32
  store i32 %33, ptr %3, align 4, !tbaa !8
  call void @llvm.lifetime.end.p0(i64 8, ptr %4) #8
  br label %34

34:                                               ; preds = %30, %7, %1
  %35 = load i32, ptr %3, align 4, !tbaa !8
  call void @llvm.lifetime.end.p0(i64 4, ptr %3) #8
  ret i32 %35
}