; Function Attrs: nofree norecurse nosync nounwind memory(argmem: read) uwtable
define range(i32 0, 2) i32 @sp_leading_bit(ptr noundef readonly captures(address_is_null) %0) local_unnamed_addr #9 {
  %.not = icmp eq ptr %0, null
  br i1 %.not, label %17, label %2

2:                                                ; preds = %1
  %3 = load i16, ptr %0, align 8, !tbaa !12
  %.not10 = icmp eq i16 %3, 0
  br i1 %.not10, label %17, label %4

4:                                                ; preds = %2
  %5 = zext i16 %3 to i64
  %6 = getelementptr inbounds nuw i8, ptr %0, i64 8
  %7 = add nuw nsw i64 %5, 4294967295
  %8 = and i64 %7, 4294967295
  %9 = getelementptr inbounds nuw [129 x i64], ptr %6, i64 0, i64 %8
  %10 = load i64, ptr %9, align 8, !tbaa !8
  br label %11

11:                                               ; preds = %11, %4
  %.0 = phi i64 [ %10, %4 ], [ %13, %11 ]
  %12 = icmp ugt i64 %.0, 255
  %13 = lshr i64 %.0, 8
  br i1 %12, label %11, label %14, !llvm.loop !24

14:                                               ; preds = %11
  %15 = lshr i64 %.0, 7
  %16 = trunc nuw nsw i64 %15 to i32
  br label %17

17:                                               ; preds = %14, %2, %1
  %.07 = phi i32 [ %16, %14 ], [ 0, %2 ], [ 0, %1 ]
  ret i32 %.07
}